target datalayout = "e-m:e-p270:32:32-p271:32:32-p272:64:64-i64:64-i128:128-f80:128-n8:16:32:64-S128"
target triple = "x86_64-pc-linux-gnu"

%struct.Abc_Ntk_t_ = type { i32, i32, ptr, ptr, ptr, ptr, ptr, ptr, ptr, ptr, ptr, ptr, ptr, [11 x i32], i32, i32, i32, i32, ptr, i32, ptr, ptr, i32, i32, i32, double, i32, %struct.Vec_Int_t_, ptr, ptr, ptr, ptr, ptr, float, i32, ptr, ptr, ptr, ptr, ptr, ptr, ptr, ptr, ptr, ptr, ptr, ptr, ptr, ptr, ptr, ptr, ptr, ptr, ptr, ptr, ptr }
%struct.Vec_Int_t_ = type { i32, i32, ptr }
%struct.Abc_Des_t_ = type { ptr, ptr, ptr, ptr, ptr, ptr, ptr }
%struct.Vec_Ptr_t_ = type { i32, i32, ptr }

@stdout = external global ptr, align 8
@.str.1 = private unnamed_addr constant [2 x i8] c"w\00", align 1
@.str.2 = private unnamed_addr constant [46 x i8] c"Io_WriteBlif(): Cannot open the output file.\0A\00", align 1
@.str.3 = private unnamed_addr constant [39 x i8] c"# Benchmark \22%s\22 written by ABC on %s\0A\00", align 1
@.str.4 = private unnamed_addr constant [3 x i8] c"\0A\0A\00", align 1

; Function Attrs: nounwind uwtable
define internal ptr @Vec_PtrEntry(ptr noundef %0, i32 noundef %1) #0 {
  %3 = alloca ptr, align 8
  %4 = alloca i32, align 4
  store ptr %0, ptr %3, align 8
  store i32 %1, ptr %4, align 4
  %5 = load ptr, ptr %3, align 8
  %6 = getelementptr inbounds %struct.Vec_Ptr_t_, ptr %5, i32 0, i32 2
  %7 = load ptr, ptr %6, align 8
  %8 = load i32, ptr %4, align 4
  %9 = sext i32 %8 to i64
  %10 = getelementptr inbounds ptr, ptr %7, i64 %9
  %11 = load ptr, ptr %10, align 8
  ret ptr %11
}

; Function Attrs: nounwind uwtable
define internal i32 @Vec_PtrSize(ptr noundef %0) #0 {
  %2 = alloca ptr, align 8
  store ptr %0, ptr %2, align 8
  %3 = load ptr, ptr %2, align 8
  %4 = getelementptr inbounds %struct.Vec_Ptr_t_, ptr %3, i32 0, i32 1
  %5 = load i32, ptr %4, align 4
  ret i32 %5
}

; Function Attrs: nounwind uwtable
define internal i32 @Abc_NtkWhiteboxNum(ptr noundef %0) #0 {
  %2 = alloca ptr, align 8
  store ptr %0, ptr %2, align 8
  %3 = load ptr, ptr %2, align 8
  %4 = getelementptr inbounds %struct.Abc_Ntk_t_, ptr %3, i32 0, i32 13
  %5 = getelementptr inbounds [11 x i32], ptr %4, i64 0, i64 9
  %6 = load i32, ptr %5, align 4
  ret i32 %6
}

; Function Attrs: nounwind uwtable
define internal i32 @Abc_NtkBlackboxNum(ptr noundef %0) #0 {
  %2 = alloca ptr, align 8
  store ptr %0, ptr %2, align 8
  %3 = load ptr, ptr %2, align 8
  %4 = getelementptr inbounds %struct.Abc_Ntk_t_, ptr %3, i32 0, i32 13
  %5 = getelementptr inbounds [11 x i32], ptr %4, i64 0, i64 10
  %6 = load i32, ptr %5, align 8
  ret i32 %6
}

; Function Attrs: nounwind uwtable
define void @Io_WriteBlif(ptr noundef %0, ptr noundef %1, i32 noundef %2, i32 noundef %3, i32 noundef %4) #0 {
  %6 = alloca ptr, align 8
  %7 = alloca ptr, align 8
  %8 = alloca i32, align 4
  %9 = alloca i32, align 4
  %10 = alloca i32, align 4
  %11 = alloca ptr, align 8
  %12 = alloca ptr, align 8
  %13 = alloca i32, align 4
  store ptr %0, ptr %6, align 8
  store ptr %1, ptr %7, align 8
  store i32 %2, ptr %8, align 4
  store i32 %3, ptr %9, align 4
  store i32 %4, ptr %10, align 4
  %14 = load ptr, ptr %7, align 8
  %15 = call noalias ptr @fopen(ptr noundef %14, ptr noundef @.str.1)
  store ptr %15, ptr %11, align 8
  %16 = load ptr, ptr %11, align 8
  %17 = icmp eq ptr %16, null
  br i1 %17, label %18, label %21

18:                                               ; preds = %5
  %19 = load ptr, ptr @stdout, align 8
  %20 = call i32 (ptr, ptr, ...) @fprintf(ptr noundef %19, ptr noundef @.str.2) #7
  br label %80

21:                                               ; preds = %5
  %22 = load ptr, ptr %11, align 8
  %23 = load ptr, ptr %6, align 8
  %24 = getelementptr inbounds %struct.Abc_Ntk_t_, ptr %23, i32 0, i32 2
  %25 = load ptr, ptr %24, align 8
  %26 = call ptr (...) @Extra_TimeStamp()
  %27 = call i32 (ptr, ptr, ...) @fprintf(ptr noundef %22, ptr noundef @.str.3, ptr noundef %25, ptr noundef %26) #7
  %28 = load ptr, ptr %11, align 8
  %29 = load ptr, ptr %6, align 8
  %30 = load i32, ptr %8, align 4
  %31 = load i32, ptr %9, align 4
  %32 = load i32, ptr %10, align 4
  call void @Io_NtkWrite(ptr noundef %28, ptr noundef %29, i32 noundef %30, i32 noundef %31, i32 noundef %32)
  %33 = load ptr, ptr %6, align 8
  %34 = call i32 @Abc_NtkBlackboxNum(ptr noundef %33)
  %35 = icmp sgt i32 %34, 0
  br i1 %35, label %40, label %36

36:                                               ; preds = %21
  %37 = load ptr, ptr %6, align 8
  %38 = call i32 @Abc_NtkWhiteboxNum(ptr noundef %37)
  %39 = icmp sgt i32 %38, 0
  br i1 %39, label %40, label %77

40:                                               ; preds = %36, %21
  store i32 0, ptr %13, align 4
  br label %41

41:                                               ; preds = %73, %40
  %42 = load i32, ptr %13, align 4
  %43 = load ptr, ptr %6, align 8
  %44 = getelementptr inbounds %struct.Abc_Ntk_t_, ptr %43, i32 0, i32 20
  %45 = load ptr, ptr %44, align 8
  %46 = getelementptr inbounds %struct.Abc_Des_t_, ptr %45, i32 0, i32 3
  %47 = load ptr, ptr %46, align 8
  %48 = call i32 @Vec_PtrSize(ptr noundef %47)
  %49 = icmp slt i32 %42, %48
  br i1 %49, label %50, label %58

50:                                               ; preds = %41
  %51 = load ptr, ptr %6, align 8
  %52 = getelementptr inbounds %struct.Abc_Ntk_t_, ptr %51, i32 0, i32 20
  %53 = load ptr, ptr %52, align 8
  %54 = getelementptr inbounds %struct.Abc_Des_t_, ptr %53, i32 0, i32 3
  %55 = load ptr, ptr %54, align 8
  %56 = load i32, ptr %13, align 4
  %57 = call ptr @Vec_PtrEntry(ptr noundef %55, i32 noundef %56)
  store ptr %57, ptr %12, align 8
  br label %58

58:                                               ; preds = %50, %41
  %59 = phi i1 [ false, %41 ], [ true, %50 ]
  br i1 %59, label %60, label %76

60:                                               ; preds = %58
  %61 = load ptr, ptr %12, align 8
  %62 = load ptr, ptr %6, align 8
  %63 = icmp eq ptr %61, %62
  br i1 %63, label %64, label %65

64:                                               ; preds = %60
  br label %73

65:                                               ; preds = %60
  %66 = load ptr, ptr %11, align 8
  %67 = call i32 (ptr, ptr, ...) @fprintf(ptr noundef %66, ptr noundef @.str.4) #7
  %68 = load ptr, ptr %11, align 8
  %69 = load ptr, ptr %12, align 8
  %70 = load i32, ptr %8, align 4
  %71 = load i32, ptr %9, align 4
  %72 = load i32, ptr %10, align 4
  call void @Io_NtkWrite(ptr noundef %68, ptr noundef %69, i32 noundef %70, i32 noundef %71, i32 noundef %72)
  br label %73

73:                                               ; preds = %65, %64
  %74 = load i32, ptr %13, align 4
  %75 = add nsw i32 %74, 1
  store i32 %75, ptr %13, align 4
  br label %41, !llvm.loop !4

76:                                               ; preds = %58
  br label %77

77:                                               ; preds = %76, %36
  %78 = load ptr, ptr %11, align 8
  %79 = call i32 @fclose(ptr noundef %78)
  br label %80

80:                                               ; preds = %77, %18
  ret void
}