; Function Attrs: nounwind uwtable
define void @Io_WriteBlif(ptr noundef %0, ptr noundef readonly captures(none) %1, i32 noundef %2, i32 noundef %3, i32 noundef %4) local_unnamed_addr #0 {
  %6 = tail call noalias ptr @fopen(ptr noundef %1, ptr noundef nonnull @.str.1)
  %7 = icmp eq ptr %6, null
  br i1 %7, label %8, label %11

8:                                                ; preds = %5
  %9 = load ptr, ptr @stdout, align 8
  %10 = tail call i64 @fwrite(ptr nonnull @.str.2, i64 45, i64 1, ptr %9)
  br label %44

11:                                               ; preds = %5
  %12 = getelementptr inbounds nuw i8, ptr %0, i64 8
  %13 = load ptr, ptr %12, align 8
  %14 = tail call ptr (...) @Extra_TimeStamp() #10
  %15 = tail call i32 (ptr, ptr, ...) @fprintf(ptr noundef nonnull %6, ptr noundef nonnull @.str.3, ptr noundef %13, ptr noundef %14) #10
  tail call fastcc void @Io_NtkWrite(ptr noundef %6, ptr noundef %0, i32 noundef %2, i32 noundef %3, i32 noundef %4)
  %16 = getelementptr i8, ptr %0, i64 136
  %.val27 = load i32, ptr %16, align 8
  %17 = icmp sgt i32 %.val27, 0
  br i1 %17, label %21, label %18

18:                                               ; preds = %11
  %19 = getelementptr i8, ptr %0, i64 132
  %.val28 = load i32, ptr %19, align 4
  %20 = icmp sgt i32 %.val28, 0
  br i1 %20, label %21, label %.critedge

21:                                               ; preds = %18, %11
  %22 = getelementptr inbounds nuw i8, ptr %0, i64 176
  %23 = load ptr, ptr %22, align 8
  %24 = getelementptr inbounds nuw i8, ptr %23, i64 24
  %25 = load ptr, ptr %24, align 8
  %26 = getelementptr i8, ptr %25, i64 4
  %.val29 = load i32, ptr %26, align 4
  %27 = icmp sgt i32 %.val29, 0
  br i1 %27, label %.lr.ph, label %.critedge

.lr.ph:                                           ; preds = %21, %36
  %28 = phi ptr [ %37, %36 ], [ %23, %21 ]
  %indvars.iv = phi i64 [ %indvars.iv.next, %36 ], [ 0, %21 ]
  %29 = phi ptr [ %39, %36 ], [ %25, %21 ]
  %30 = getelementptr i8, ptr %29, i64 8
  %.val26 = load ptr, ptr %30, align 8
  %31 = getelementptr inbounds nuw ptr, ptr %.val26, i64 %indvars.iv
  %32 = load ptr, ptr %31, align 8
  %33 = icmp eq ptr %32, %0
  br i1 %33, label %36, label %34

34:                                               ; preds = %.lr.ph
  %35 = tail call i64 @fwrite(ptr nonnull @.str.4, i64 2, i64 1, ptr nonnull %6)
  tail call fastcc void @Io_NtkWrite(ptr noundef %6, ptr noundef %32, i32 noundef %2, i32 noundef %3, i32 noundef %4)
  %.pre = load ptr, ptr %22, align 8
  br label %36

36:                                               ; preds = %.lr.ph, %34
  %37 = phi ptr [ %28, %.lr.ph ], [ %.pre, %34 ]
  %indvars.iv.next = add nuw nsw i64 %indvars.iv, 1
  %38 = getelementptr inbounds nuw i8, ptr %37, i64 24
  %39 = load ptr, ptr %38, align 8
  %40 = getelementptr i8, ptr %39, i64 4
  %.val = load i32, ptr %40, align 4
  %41 = sext i32 %.val to i64
  %42 = icmp slt i64 %indvars.iv.next, %41
  br i1 %42, label %.lr.ph, label %.critedge, !llvm.loop !4

.critedge:                                        ; preds = %36, %21, %18
  %43 = tail call i32 @fclose(ptr noundef nonnull %6)
  br label %44

44:                                               ; preds = %.critedge, %8
  ret void
}